target datalayout = "e-m:e-p270:32:32-p271:32:32-p272:64:64-i64:64-i128:128-f80:128-n8:16:32:64-S128"
target triple = "x86_64-unknown-linux-gnu"

%"class.std::basic_ios" = type { %"class.std::ios_base", ptr, i8, i8, ptr, ptr, ptr, ptr }
%"class.std::ios_base" = type { ptr, i64, i64, i32, i32, i32, ptr, %"struct.std::ios_base::_Words", [8 x %"struct.std::ios_base::_Words"], i32, ptr, %"class.std::locale" }
%"struct.std::ios_base::_Words" = type { ptr, i64 }
%"class.std::locale" = type { ptr }
%"class.std::__cxx11::basic_string" = type { %"struct.std::__cxx11::basic_string<char>::_Alloc_hider", i64, %union.anon }
%"struct.std::__cxx11::basic_string<char>::_Alloc_hider" = type { ptr }
%union.anon = type { i64, [8 x i8] }
%"class.std::__cxx11::basic_stringstream" = type { %"class.std::basic_iostream.base", %"class.std::__cxx11::basic_stringbuf", %"class.std::basic_ios" }
%"class.std::basic_iostream.base" = type { %"class.std::basic_istream.base", %"class.std::basic_ostream.base" }
%"class.std::basic_istream.base" = type { ptr, i64 }
%"class.std::basic_ostream.base" = type { ptr }
%"class.std::__cxx11::basic_stringbuf" = type { %"class.std::basic_streambuf", i32, %"class.std::__cxx11::basic_string" }
%"class.std::basic_streambuf" = type { ptr, ptr, ptr, ptr, ptr, ptr, ptr, %"class.std::locale" }
%"class.absl::Span.233" = type { ptr, i64 }
%"struct.std::_Head_base.247" = type { %"class.absl::Span.233" }
%"struct.std::_Head_base.640" = type { %"class.absl::Span.641" }
%"class.absl::Span.641" = type { ptr, i64 }

@.str.166 = private unnamed_addr constant [2 x i8] c")\00", align 1
@.str.191 = private unnamed_addr constant [3 x i8] c", \00", align 1
@.str.387 = private unnamed_addr constant [2 x i8] c"(\00", align 1

; Function Attrs: mustprogress nounwind uwtable
define linkonce_odr dso_local noundef nonnull align 8 dereferenceable(16) ptr @_ZNSt10_Head_baseILm0EN4absl4SpanIKaEELb0EE7_M_headERKS4_(ptr noundef nonnull align 8 dereferenceable(16) %__b) #7 comdat align 2 {
entry:
  %__b.addr = alloca ptr, align 8
  store ptr %__b, ptr %__b.addr, align 8
  %0 = load ptr, ptr %__b.addr, align 8
  %_M_head_impl = getelementptr inbounds %"struct.std::_Head_base.247", ptr %0, i32 0, i32 0
  ret ptr %_M_head_impl
}

; Function Attrs: mustprogress nounwind uwtable
define internal noundef nonnull align 8 dereferenceable(16) ptr @_ZNSt10_Head_baseILm1EN4absl4SpanIKNS0_18container_internal12_GLOBAL__N_15Int64EEELb0EE7_M_headERKS7_(ptr noundef nonnull align 8 dereferenceable(16) %__b) #7 align 2 {
entry:
  %__b.addr = alloca ptr, align 8
  store ptr %__b, ptr %__b.addr, align 8
  %0 = load ptr, ptr %__b.addr, align 8
  %_M_head_impl = getelementptr inbounds %"struct.std::_Head_base.640", ptr %0, i32 0, i32 0
  ret ptr %_M_head_impl
}

; Function Attrs: mustprogress uwtable
define linkonce_odr dso_local void @_ZN7testing8internal17PrintWithFallbackIN4absl4SpanIKaEEEEvRKT_PSo(ptr noundef nonnull align 8 dereferenceable(16) %value, ptr noundef %os) #4 comdat {
entry:
  %value.addr = alloca ptr, align 8
  %os.addr = alloca ptr, align 8
  store ptr %value, ptr %value.addr, align 8
  store ptr %os, ptr %os.addr, align 8
  %0 = load ptr, ptr %value.addr, align 8
  %1 = load ptr, ptr %os.addr, align 8
  call void @_ZN7testing8internal16ContainerPrinter10PrintValueIN4absl4SpanIKaEEvEEvRKT_PSo(ptr noundef nonnull align 8 dereferenceable(16) %0, ptr noundef %1)
  ret void
}

; Function Attrs: mustprogress nounwind uwtable
define internal noundef nonnull align 8 dereferenceable(16) ptr @_ZNSt11_Tuple_implILm0EJN4absl4SpanIKaEENS1_IKNS0_18container_internal12_GLOBAL__N_15Int64EEEEE7_M_headERKS9_(ptr noundef nonnull align 8 dereferenceable(32) %__t) #7 align 2 {
entry:
  %__t.addr = alloca ptr, align 8
  store ptr %__t, ptr %__t.addr, align 8
  %0 = load ptr, ptr %__t.addr, align 8
  %add.ptr = getelementptr inbounds i8, ptr %0, i64 16
  %call = call noundef nonnull align 8 dereferenceable(16) ptr @_ZNSt10_Head_baseILm0EN4absl4SpanIKaEELb0EE7_M_headERKS4_(ptr noundef nonnull align 8 dereferenceable(16) %add.ptr) #3
  ret ptr %call
}

; Function Attrs: mustprogress nounwind uwtable
define internal noundef nonnull align 8 dereferenceable(16) ptr @_ZNSt11_Tuple_implILm1EJN4absl4SpanIKNS0_18container_internal12_GLOBAL__N_15Int64EEEEE7_M_headERKS7_(ptr noundef nonnull align 8 dereferenceable(16) %__t) #7 align 2 {
entry:
  %__t.addr = alloca ptr, align 8
  store ptr %__t, ptr %__t.addr, align 8
  %0 = load ptr, ptr %__t.addr, align 8
  %call = call noundef nonnull align 8 dereferenceable(16) ptr @_ZNSt10_Head_baseILm1EN4absl4SpanIKNS0_18container_internal12_GLOBAL__N_15Int64EEELb0EE7_M_headERKS7_(ptr noundef nonnull align 8 dereferenceable(16) %0) #3
  ret ptr %call
}

; Function Attrs: mustprogress uwtable
define linkonce_odr dso_local void @_ZN7testing8internal7PrintToIN4absl4SpanIKaEEEEvRKT_PSo(ptr noundef nonnull align 8 dereferenceable(16) %value, ptr noundef %os) #4 comdat {
entry:
  %value.addr = alloca ptr, align 8
  %os.addr = alloca ptr, align 8
  store ptr %value, ptr %value.addr, align 8
  store ptr %os, ptr %os.addr, align 8
  %0 = load ptr, ptr %value.addr, align 8
  %1 = load ptr, ptr %os.addr, align 8
  call void @_ZN7testing8internal17PrintWithFallbackIN4absl4SpanIKaEEEEvRKT_PSo(ptr noundef nonnull align 8 dereferenceable(16) %0, ptr noundef %1)
  ret void
}

; Function Attrs: mustprogress nounwind uwtable
define internal noundef nonnull align 8 dereferenceable(16) ptr @_ZSt12__get_helperILm0EN4absl4SpanIKaEEJNS1_IKNS0_18container_internal12_GLOBAL__N_15Int64EEEEERKT0_RKSt11_Tuple_implIXT_EJS9_DpT1_EE(ptr noundef nonnull align 8 dereferenceable(32) %__t) #7 {
entry:
  %__t.addr = alloca ptr, align 8
  store ptr %__t, ptr %__t.addr, align 8
  %0 = load ptr, ptr %__t.addr, align 8
  %call = call noundef nonnull align 8 dereferenceable(16) ptr @_ZNSt11_Tuple_implILm0EJN4absl4SpanIKaEENS1_IKNS0_18container_internal12_GLOBAL__N_15Int64EEEEE7_M_headERKS9_(ptr noundef nonnull align 8 dereferenceable(32) %0) #3
  ret ptr %call
}

; Function Attrs: mustprogress nounwind uwtable
define internal noundef nonnull align 8 dereferenceable(16) ptr @_ZSt12__get_helperILm1EN4absl4SpanIKNS0_18container_internal12_GLOBAL__N_15Int64EEEJEERKT0_RKSt11_Tuple_implIXT_EJS7_DpT1_EE(ptr noundef nonnull align 8 dereferenceable(16) %__t) #7 {
entry:
  %__t.addr = alloca ptr, align 8
  store ptr %__t, ptr %__t.addr, align 8
  %0 = load ptr, ptr %__t.addr, align 8
  %call = call noundef nonnull align 8 dereferenceable(16) ptr @_ZNSt11_Tuple_implILm1EJN4absl4SpanIKNS0_18container_internal12_GLOBAL__N_15Int64EEEEE7_M_headERKS7_(ptr noundef nonnull align 8 dereferenceable(16) %0) #3
  ret ptr %call
}

; Function Attrs: mustprogress uwtable
define linkonce_odr dso_local void @_ZN7testing8internal16UniversalPrinterIN4absl4SpanIKaEEE5PrintERKS5_PSo(ptr noundef nonnull align 8 dereferenceable(16) %value, ptr noundef %os) #4 comdat align 2 {
entry:
  %value.addr = alloca ptr, align 8
  %os.addr = alloca ptr, align 8
  store ptr %value, ptr %value.addr, align 8
  store ptr %os, ptr %os.addr, align 8
  %0 = load ptr, ptr %value.addr, align 8
  %1 = load ptr, ptr %os.addr, align 8
  call void @_ZN7testing8internal7PrintToIN4absl4SpanIKaEEEEvRKT_PSo(ptr noundef nonnull align 8 dereferenceable(16) %0, ptr noundef %1)
  ret void
}

; Function Attrs: mustprogress nounwind uwtable
define internal noundef nonnull align 8 dereferenceable(16) ptr @_ZSt3getILm0EJN4absl4SpanIKaEENS1_IKNS0_18container_internal12_GLOBAL__N_15Int64EEEEERKNSt13tuple_elementIXT_ESt5tupleIJDpT0_EEE4typeERKSD_(ptr noundef nonnull align 8 dereferenceable(32) %__t) #7 {
entry:
  %__t.addr = alloca ptr, align 8
  store ptr %__t, ptr %__t.addr, align 8
  %0 = load ptr, ptr %__t.addr, align 8
  %call = call noundef nonnull align 8 dereferenceable(16) ptr @_ZSt12__get_helperILm0EN4absl4SpanIKaEEJNS1_IKNS0_18container_internal12_GLOBAL__N_15Int64EEEEERKT0_RKSt11_Tuple_implIXT_EJS9_DpT1_EE(ptr noundef nonnull align 8 dereferenceable(32) %0) #3
  ret ptr %call
}

; Function Attrs: mustprogress nounwind uwtable
define internal void @_ZN7testing8internal12PrintTupleToISt5tupleIJN4absl4SpanIKaEENS4_IKNS3_18container_internal12_GLOBAL__N_15Int64EEEEEEEvRKT_St17integral_constantImLm0EEPSo(ptr noundef nonnull align 8 dereferenceable(32) %0, ptr noundef %1) #7 {
entry:
  %.addr = alloca ptr, align 8
  %.addr1 = alloca ptr, align 8
  store ptr %0, ptr %.addr, align 8
  store ptr %1, ptr %.addr1, align 8
  ret void
}

; Function Attrs: mustprogress nounwind uwtable
define internal noundef nonnull align 8 dereferenceable(16) ptr @_ZSt3getILm1EJN4absl4SpanIKaEENS1_IKNS0_18container_internal12_GLOBAL__N_15Int64EEEEERKNSt13tuple_elementIXT_ESt5tupleIJDpT0_EEE4typeERKSD_(ptr noundef nonnull align 8 dereferenceable(32) %__t) #7 {
entry:
  %__t.addr = alloca ptr, align 8
  store ptr %__t, ptr %__t.addr, align 8
  %0 = load ptr, ptr %__t.addr, align 8
  %call = call noundef nonnull align 8 dereferenceable(16) ptr @_ZSt12__get_helperILm1EN4absl4SpanIKNS0_18container_internal12_GLOBAL__N_15Int64EEEJEERKT0_RKSt11_Tuple_implIXT_EJS7_DpT1_EE(ptr noundef nonnull align 8 dereferenceable(16) %0) #3
  ret ptr %call
}

; Function Attrs: mustprogress uwtable
define internal void @_ZN7testing8internal12PrintTupleToISt5tupleIJN4absl4SpanIKaEENS4_IKNS3_18container_internal12_GLOBAL__N_15Int64EEEEELm1EEEvRKT_St17integral_constantImXT0_EEPSo(ptr noundef nonnull align 8 dereferenceable(32) %t, ptr noundef %os) #4 {
entry:
  %t.addr = alloca ptr, align 8
  %os.addr = alloca ptr, align 8
  store ptr %t, ptr %t.addr, align 8
  store ptr %os, ptr %os.addr, align 8
  %0 = load ptr, ptr %t.addr, align 8
  %1 = load ptr, ptr %os.addr, align 8
  call void @_ZN7testing8internal12PrintTupleToISt5tupleIJN4absl4SpanIKaEENS4_IKNS3_18container_internal12_GLOBAL__N_15Int64EEEEEEEvRKT_St17integral_constantImLm0EEPSo(ptr noundef nonnull align 8 dereferenceable(32) %0, ptr noundef %1)
  %2 = load ptr, ptr %t.addr, align 8
  %call = call noundef nonnull align 8 dereferenceable(16) ptr @_ZSt3getILm0EJN4absl4SpanIKaEENS1_IKNS0_18container_internal12_GLOBAL__N_15Int64EEEEERKNSt13tuple_elementIXT_ESt5tupleIJDpT0_EEE4typeERKSD_(ptr noundef nonnull align 8 dereferenceable(32) %2) #3
  %3 = load ptr, ptr %os.addr, align 8
  call void @_ZN7testing8internal16UniversalPrinterIN4absl4SpanIKaEEE5PrintERKS5_PSo(ptr noundef nonnull align 8 dereferenceable(16) %call, ptr noundef %3)
  ret void
}

; Function Attrs: mustprogress uwtable
define internal void @_ZN7testing8internal12PrintTupleToISt5tupleIJN4absl4SpanIKaEENS4_IKNS3_18container_internal12_GLOBAL__N_15Int64EEEEELm2EEEvRKT_St17integral_constantImXT0_EEPSo(ptr noundef nonnull align 8 dereferenceable(32) %t, ptr noundef %os) #4 {
entry:
  %t.addr = alloca ptr, align 8
  %os.addr = alloca ptr, align 8
  store ptr %t, ptr %t.addr, align 8
  store ptr %os, ptr %os.addr, align 8
  %0 = load ptr, ptr %t.addr, align 8
  %1 = load ptr, ptr %os.addr, align 8
  call void @_ZN7testing8internal12PrintTupleToISt5tupleIJN4absl4SpanIKaEENS4_IKNS3_18container_internal12_GLOBAL__N_15Int64EEEEELm1EEEvRKT_St17integral_constantImXT0_EEPSo(ptr noundef nonnull align 8 dereferenceable(32) %0, ptr noundef %1)
  %2 = load ptr, ptr %os.addr, align 8
  %call = call noundef nonnull align 8 dereferenceable(8) ptr @_ZStlsISt11char_traitsIcEERSt13basic_ostreamIcT_ES5_PKc(ptr noundef nonnull align 8 dereferenceable(8) %2, ptr noundef @.str.191)
  %3 = load ptr, ptr %t.addr, align 8
  %call1 = call noundef nonnull align 8 dereferenceable(16) ptr @_ZSt3getILm1EJN4absl4SpanIKaEENS1_IKNS0_18container_internal12_GLOBAL__N_15Int64EEEEERKNSt13tuple_elementIXT_ESt5tupleIJDpT0_EEE4typeERKSD_(ptr noundef nonnull align 8 dereferenceable(32) %3) #3
  %4 = load ptr, ptr %os.addr, align 8
  call void @_ZN7testing8internal16UniversalPrinterIN4absl4SpanIKNS2_18container_internal12_GLOBAL__N_15Int64EEEE5PrintERKS8_PSo(ptr noundef nonnull align 8 dereferenceable(16) %call1, ptr noundef %4)
  ret void
}

; Function Attrs: mustprogress uwtable
define internal void @_ZN7testing8internal7PrintToIJN4absl4SpanIKaEENS3_IKNS2_18container_internal12_GLOBAL__N_15Int64EEEEEEvRKSt5tupleIJDpT_EEPSo(ptr noundef nonnull align 8 dereferenceable(32) %t, ptr noundef %os) #4 {
entry:
  %t.addr = alloca ptr, align 8
  %os.addr = alloca ptr, align 8
  store ptr %t, ptr %t.addr, align 8
  store ptr %os, ptr %os.addr, align 8
  %0 = load ptr, ptr %os.addr, align 8
  %call = call noundef nonnull align 8 dereferenceable(8) ptr @_ZStlsISt11char_traitsIcEERSt13basic_ostreamIcT_ES5_PKc(ptr noundef nonnull align 8 dereferenceable(8) %0, ptr noundef @.str.387)
  %1 = load ptr, ptr %t.addr, align 8
  %2 = load ptr, ptr %os.addr, align 8
  call void @_ZN7testing8internal12PrintTupleToISt5tupleIJN4absl4SpanIKaEENS4_IKNS3_18container_internal12_GLOBAL__N_15Int64EEEEELm2EEEvRKT_St17integral_constantImXT0_EEPSo(ptr noundef nonnull align 8 dereferenceable(32) %1, ptr noundef %2)
  %3 = load ptr, ptr %os.addr, align 8
  %call1 = call noundef nonnull align 8 dereferenceable(8) ptr @_ZStlsISt11char_traitsIcEERSt13basic_ostreamIcT_ES5_PKc(ptr noundef nonnull align 8 dereferenceable(8) %3, ptr noundef @.str.166)
  ret void
}

; Function Attrs: mustprogress uwtable
define internal void @_ZN7testing8internal16UniversalPrinterISt5tupleIJN4absl4SpanIKaEENS4_IKNS3_18container_internal12_GLOBAL__N_15Int64EEEEEE5PrintERKSC_PSo(ptr noundef nonnull align 8 dereferenceable(32) %value, ptr noundef %os) #4 align 2 {
entry:
  %value.addr = alloca ptr, align 8
  %os.addr = alloca ptr, align 8
  store ptr %value, ptr %value.addr, align 8
  store ptr %os, ptr %os.addr, align 8
  %0 = load ptr, ptr %value.addr, align 8
  %1 = load ptr, ptr %os.addr, align 8
  call void @_ZN7testing8internal7PrintToIJN4absl4SpanIKaEENS3_IKNS2_18container_internal12_GLOBAL__N_15Int64EEEEEEvRKSt5tupleIJDpT_EEPSo(ptr noundef nonnull align 8 dereferenceable(32) %0, ptr noundef %1)
  ret void
}

; Function Attrs: mustprogress uwtable
define internal void @_ZN7testing8internal14UniversalPrintISt5tupleIJN4absl4SpanIKaEENS4_IKNS3_18container_internal12_GLOBAL__N_15Int64EEEEEEEvRKT_PSo(ptr noundef nonnull align 8 dereferenceable(32) %value, ptr noundef %os) #4 {
entry:
  %value.addr = alloca ptr, align 8
  %os.addr = alloca ptr, align 8
  store ptr %value, ptr %value.addr, align 8
  store ptr %os, ptr %os.addr, align 8
  %0 = load ptr, ptr %value.addr, align 8
  %1 = load ptr, ptr %os.addr, align 8
  call void @_ZN7testing8internal16UniversalPrinterISt5tupleIJN4absl4SpanIKaEENS4_IKNS3_18container_internal12_GLOBAL__N_15Int64EEEEEE5PrintERKSC_PSo(ptr noundef nonnull align 8 dereferenceable(32) %0, ptr noundef %1)
  ret void
}

; Function Attrs: mustprogress uwtable
define internal void @_ZN7testing8internal21UniversalTersePrinterISt5tupleIJN4absl4SpanIKaEENS4_IKNS3_18container_internal12_GLOBAL__N_15Int64EEEEEE5PrintERKSC_PSo(ptr noundef nonnull align 8 dereferenceable(32) %value, ptr noundef %os) #4 align 2 {
entry:
  %value.addr = alloca ptr, align 8
  %os.addr = alloca ptr, align 8
  store ptr %value, ptr %value.addr, align 8
  store ptr %os, ptr %os.addr, align 8
  %0 = load ptr, ptr %value.addr, align 8
  %1 = load ptr, ptr %os.addr, align 8
  call void @_ZN7testing8internal14UniversalPrintISt5tupleIJN4absl4SpanIKaEENS4_IKNS3_18container_internal12_GLOBAL__N_15Int64EEEEEEEvRKT_PSo(ptr noundef nonnull align 8 dereferenceable(32) %0, ptr noundef %1)
  ret void
}

; Function Attrs: mustprogress uwtable
define internal void @_ZN7testing13PrintToStringISt5tupleIJN4absl4SpanIKaEENS3_IKNS2_18container_internal12_GLOBAL__N_15Int64EEEEEEENSt7__cxx1112basic_stringIcSt11char_traitsIcESaIcEEERKT_(ptr noalias sret(%"class.std::__cxx11::basic_string") align 8 %agg.result, ptr noundef nonnull align 8 dereferenceable(32) %value) #4 personality ptr @__gxx_personality_v0 {
entry:
  %result.ptr = alloca ptr, align 8
  %value.addr = alloca ptr, align 8
  %ss = alloca %"class.std::__cxx11::basic_stringstream", align 8
  %exn.slot = alloca ptr, align 8
  %ehselector.slot = alloca i32, align 4
  store ptr %agg.result, ptr %result.ptr, align 8
  store ptr %value, ptr %value.addr, align 8
  call void @_ZNSt7__cxx1118basic_stringstreamIcSt11char_traitsIcESaIcEEC1Ev(ptr noundef nonnull align 8 dereferenceable(128) %ss)
  %0 = load ptr, ptr %value.addr, align 8
  %1 = icmp eq ptr %ss, null
  br i1 %1, label %cast.end, label %cast.notnull

cast.notnull:                                     ; preds = %entry
  %add.ptr = getelementptr inbounds i8, ptr %ss, i64 16
  br label %cast.end

cast.end:                                         ; preds = %cast.notnull, %entry
  %cast.result = phi ptr [ %add.ptr, %cast.notnull ], [ null, %entry ]
  invoke void @_ZN7testing8internal21UniversalTersePrinterISt5tupleIJN4absl4SpanIKaEENS4_IKNS3_18container_internal12_GLOBAL__N_15Int64EEEEEE5PrintERKSC_PSo(ptr noundef nonnull align 8 dereferenceable(32) %0, ptr noundef %cast.result)
          to label %invoke.cont unwind label %lpad

invoke.cont:                                      ; preds = %cast.end
  invoke void @_ZNKSt7__cxx1118basic_stringstreamIcSt11char_traitsIcESaIcEE3strEv(ptr sret(%"class.std::__cxx11::basic_string") align 8 %agg.result, ptr noundef nonnull align 8 dereferenceable(128) %ss)
          to label %invoke.cont1 unwind label %lpad

invoke.cont1:                                     ; preds = %invoke.cont
  call void @_ZNSt7__cxx1118basic_stringstreamIcSt11char_traitsIcESaIcEED1Ev(ptr noundef nonnull align 8 dereferenceable(128) %ss) #3
  ret void

lpad:                                             ; preds = %invoke.cont, %cast.end
  %2 = landingpad { ptr, i32 }
          cleanup
  %3 = extractvalue { ptr, i32 } %2, 0
  store ptr %3, ptr %exn.slot, align 8
  %4 = extractvalue { ptr, i32 } %2, 1
  store i32 %4, ptr %ehselector.slot, align 4
  call void @_ZNSt7__cxx1118basic_stringstreamIcSt11char_traitsIcESaIcEED1Ev(ptr noundef nonnull align 8 dereferenceable(128) %ss) #3
  br label %eh.resume

eh.resume:                                        ; preds = %lpad
  %exn = load ptr, ptr %exn.slot, align 8
  %sel = load i32, ptr %ehselector.slot, align 4
  %lpad.val = insertvalue { ptr, i32 } poison, ptr %exn, 0
  %lpad.val2 = insertvalue { ptr, i32 } %lpad.val, i32 %sel, 1
  resume { ptr, i32 } %lpad.val2
}

; Function Attrs: mustprogress uwtable
define internal void @_ZN7testing8internal19FormatForComparisonISt5tupleIJN4absl4SpanIKaEENS4_IKNS3_18container_internal12_GLOBAL__N_15Int64EEEEESC_E6FormatB5cxx11ERKSC_(ptr noalias sret(%"class.std::__cxx11::basic_string") align 8 %agg.result, ptr noundef nonnull align 8 dereferenceable(32) %value) #4 align 2 {
entry:
  %result.ptr = alloca ptr, align 8
  %value.addr = alloca ptr, align 8
  store ptr %agg.result, ptr %result.ptr, align 8
  store ptr %value, ptr %value.addr, align 8
  %0 = load ptr, ptr %value.addr, align 8
  call void @_ZN7testing13PrintToStringISt5tupleIJN4absl4SpanIKaEENS3_IKNS2_18container_internal12_GLOBAL__N_15Int64EEEEEEENSt7__cxx1112basic_stringIcSt11char_traitsIcESaIcEEERKT_(ptr sret(%"class.std::__cxx11::basic_string") align 8 %agg.result, ptr noundef nonnull align 8 dereferenceable(32) %0)
  ret void
}

; Function Attrs: mustprogress uwtable
define internal void @_ZN7testing8internal33FormatForComparisonFailureMessageISt5tupleIJN4absl4SpanIKaEENS4_IKNS3_18container_internal12_GLOBAL__N_15Int64EEEEESC_EENSt7__cxx1112basic_stringIcSt11char_traitsIcESaIcEEERKT_RKT0_(ptr noalias sret(%"class.std::__cxx11::basic_string") align 8 %agg.result, ptr noundef nonnull align 8 dereferenceable(32) %value, ptr noundef nonnull align 8 dereferenceable(32) %0) #4 {
entry:
  %result.ptr = alloca ptr, align 8
  %value.addr = alloca ptr, align 8
  %.addr = alloca ptr, align 8
  store ptr %agg.result, ptr %result.ptr, align 8
  store ptr %value, ptr %value.addr, align 8
  store ptr %0, ptr %.addr, align 8
  %1 = load ptr, ptr %value.addr, align 8
  call void @_ZN7testing8internal19FormatForComparisonISt5tupleIJN4absl4SpanIKaEENS4_IKNS3_18container_internal12_GLOBAL__N_15Int64EEEEESC_E6FormatB5cxx11ERKSC_(ptr sret(%"class.std::__cxx11::basic_string") align 8 %agg.result, ptr noundef nonnull align 8 dereferenceable(32) %1)
  ret void
}