; Function Attrs: mustprogress uwtable
define internal fastcc void @_ZN7testing8internal33FormatForComparisonFailureMessageISt5tupleIJN4absl4SpanIKaEENS4_IKNS3_18container_internal12_GLOBAL__N_15Int64EEEEESC_EENSt7__cxx1112basic_stringIcSt11char_traitsIcESaIcEEERKT_RKT0_(ptr noalias align 8 %agg.result, ptr noundef nonnull align 8 dereferenceable(32) %value) unnamed_addr #3 personality ptr @__gxx_personality_v0 {
entry:
  %ss.i.i = alloca %"class.std::__cxx11::basic_stringstream", align 8
  call void @llvm.lifetime.start.p0(i64 392, ptr nonnull %ss.i.i), !noalias !841
  call void @_ZNSt7__cxx1118basic_stringstreamIcSt11char_traitsIcESaIcEEC1Ev(ptr noundef nonnull align 8 dereferenceable(128) %ss.i.i), !noalias !844
  %add.ptr.i.i = getelementptr inbounds i8, ptr %ss.i.i, i64 16
  %call.i.i.i.i1.i.i = invoke noundef nonnull align 8 dereferenceable(8) ptr @_ZStlsISt11char_traitsIcEERSt13basic_ostreamIcT_ES5_PKc(ptr noundef nonnull align 8 dereferenceable(8) %add.ptr.i.i, ptr noundef nonnull @.str.387)
          to label %call.i.i.i.i.noexc.i.i unwind label %lpad.i.i, !noalias !844

call.i.i.i.i.noexc.i.i:                           ; preds = %entry
  %add.ptr.i.i.i.i.i.i.i.i.i.i.i = getelementptr inbounds i8, ptr %value, i64 16
  invoke void @_ZN7testing8internal16ContainerPrinter10PrintValueIN4absl4SpanIKaEEvEEvRKT_PSo(ptr noundef nonnull align 8 dereferenceable(16) %add.ptr.i.i.i.i.i.i.i.i.i.i.i, ptr noundef nonnull %add.ptr.i.i)
          to label %.noexc.i.i unwind label %lpad.i.i, !noalias !844

.noexc.i.i:                                       ; preds = %call.i.i.i.i.noexc.i.i
  %call.i.i.i.i.i2.i.i = invoke noundef nonnull align 8 dereferenceable(8) ptr @_ZStlsISt11char_traitsIcEERSt13basic_ostreamIcT_ES5_PKc(ptr noundef nonnull align 8 dereferenceable(8) %add.ptr.i.i, ptr noundef nonnull @.str.191)
          to label %call.i.i.i.i.i.noexc.i.i unwind label %lpad.i.i, !noalias !844

call.i.i.i.i.i.noexc.i.i:                         ; preds = %.noexc.i.i
  invoke fastcc void @_ZN7testing8internal16UniversalPrinterIN4absl4SpanIKNS2_18container_internal12_GLOBAL__N_15Int64EEEE5PrintERKS8_PSo(ptr noundef nonnull align 8 dereferenceable(16) %value, ptr noundef nonnull %add.ptr.i.i)
          to label %.noexc3.i.i unwind label %lpad.i.i, !noalias !844

.noexc3.i.i:                                      ; preds = %call.i.i.i.i.i.noexc.i.i
  %call1.i.i.i.i4.i.i = invoke noundef nonnull align 8 dereferenceable(8) ptr @_ZStlsISt11char_traitsIcEERSt13basic_ostreamIcT_ES5_PKc(ptr noundef nonnull align 8 dereferenceable(8) %add.ptr.i.i, ptr noundef nonnull @.str.166)
          to label %invoke.cont.i.i unwind label %lpad.i.i, !noalias !844

invoke.cont.i.i:                                  ; preds = %.noexc3.i.i
  invoke void @_ZNKSt7__cxx1118basic_stringstreamIcSt11char_traitsIcESaIcEE3strEv(ptr sret(%"class.std::__cxx11::basic_string") align 8 %agg.result, ptr noundef nonnull align 8 dereferenceable(128) %ss.i.i)
          to label %_ZN7testing8internal19FormatForComparisonISt5tupleIJN4absl4SpanIKaEENS4_IKNS3_18container_internal12_GLOBAL__N_15Int64EEEEESC_E6FormatB5cxx11ERKSC_.exit unwind label %lpad.i.i

lpad.i.i:                                         ; preds = %invoke.cont.i.i, %.noexc3.i.i, %call.i.i.i.i.i.noexc.i.i, %.noexc.i.i, %call.i.i.i.i.noexc.i.i, %entry
  %0 = landingpad { ptr, i32 }
          cleanup
  call void @_ZNSt7__cxx1118basic_stringstreamIcSt11char_traitsIcESaIcEED1Ev(ptr noundef nonnull align 8 dereferenceable(128) %ss.i.i) #21
  resume { ptr, i32 } %0

_ZN7testing8internal19FormatForComparisonISt5tupleIJN4absl4SpanIKaEENS4_IKNS3_18container_internal12_GLOBAL__N_15Int64EEEEESC_E6FormatB5cxx11ERKSC_.exit: ; preds = %invoke.cont.i.i
  call void @_ZNSt7__cxx1118basic_stringstreamIcSt11char_traitsIcESaIcEED1Ev(ptr noundef nonnull align 8 dereferenceable(128) %ss.i.i) #21
  call void @llvm.lifetime.end.p0(i64 392, ptr nonnull %ss.i.i), !noalias !841
  ret void
}